target datalayout = "e-m:e-p270:32:32-p271:32:32-p272:64:64-i64:64-i128:128-f80:128-n8:16:32:64-S128"
target triple = "x86_64-pc-linux-gnu"

@.str.1 = private unnamed_addr constant [13 x i8] c"script_lua.c\00", align 1
@.str.105 = private unnamed_addr constant [52 x i8] c"lua stack limit reach when parsing redis.call reply\00", align 1

; Function Attrs: nounwind uwtable
define internal void @redisProtocolToLuaType_NullBulkString(ptr noundef %0, ptr noundef %1, i64 noundef %2) #0 {
  %4 = alloca ptr, align 8
  %5 = alloca ptr, align 8
  %6 = alloca i64, align 8
  %7 = alloca ptr, align 8
  store ptr %0, ptr %4, align 8, !tbaa !12
  store ptr %1, ptr %5, align 8, !tbaa !10
  store i64 %2, ptr %6, align 8, !tbaa !23
  %8 = load ptr, ptr %4, align 8, !tbaa !12
  %9 = icmp ne ptr %8, null
  br i1 %9, label %11, label %10

10:                                               ; preds = %3
  br label %19

11:                                               ; preds = %3
  call void @llvm.lifetime.start.p0(i64 8, ptr %7) #12
  %12 = load ptr, ptr %4, align 8, !tbaa !12
  store ptr %12, ptr %7, align 8, !tbaa !5
  %13 = load ptr, ptr %7, align 8, !tbaa !5
  %14 = call i32 @lua_checkstack(ptr noundef %13, i32 noundef 1)
  %15 = icmp ne i32 %14, 0
  br i1 %15, label %17, label %16

16:                                               ; preds = %11
  call void (ptr, i32, ptr, ...) @_serverPanic(ptr noundef @.str.1, i32 noundef 245, ptr noundef @.str.105)
  call void @abort() #11
  unreachable

17:                                               ; preds = %11
  %18 = load ptr, ptr %7, align 8, !tbaa !5
  call void @lua_pushboolean(ptr noundef %18, i32 noundef 0)
  call void @llvm.lifetime.end.p0(i64 8, ptr %7) #12
  br label %19

19:                                               ; preds = %17, %10
  ret void
}