; Function Attrs: nounwind uwtable
define internal void @redisProtocolToLuaType_NullBulkString(ptr noundef %0, ptr readnone captures(none) %1, i64 %2) #0 {
  %.not = icmp eq ptr %0, null
  br i1 %.not, label %8, label %4

4:                                                ; preds = %3
  %5 = tail call i32 @lua_checkstack(ptr noundef nonnull %0, i32 noundef 1) #11
  %.not4 = icmp eq i32 %5, 0
  br i1 %.not4, label %6, label %7

6:                                                ; preds = %4
  tail call void (ptr, i32, ptr, ...) @_serverPanic(ptr noundef nonnull @.str.1, i32 noundef 245, ptr noundef nonnull @.str.105) #11
  tail call void @abort() #12
  unreachable

7:                                                ; preds = %4
  tail call void @lua_pushboolean(ptr noundef nonnull %0, i32 noundef 0) #11
  br label %8

8:                                                ; preds = %3, %7
  ret void
}